; Function Attrs: mustprogress nofree norecurse nosync nounwind willreturn memory(read, inaccessiblemem: none) uwtable
define noundef ptr @_ZNK6icu_7712StringSearch11getCollatorEv(ptr noundef nonnull readonly align 8 captures(none) dereferenceable(160) %0) local_unnamed_addr #8 align 2 {
  %2 = getelementptr inbounds nuw i8, ptr %0, i64 152
  %3 = load ptr, ptr %2, align 8, !tbaa !9
  %4 = getelementptr inbounds nuw i8, ptr %3, i64 3128
  %5 = load ptr, ptr %4, align 8, !tbaa !37
  %6 = icmp eq ptr %5, null
  br i1 %6, label %10, label %7

7:                                                ; preds = %1
  %8 = load ptr, ptr %5, align 8, !tbaa !3
  %9 = icmp eq ptr %8, getelementptr inbounds nuw inrange(-16, 328) (i8, ptr @_ZTVN6icu_7717RuleBasedCollatorE, i64 16)
  br i1 %9, label %_ZN6icu_7717RuleBasedCollator16rbcFromUCollatorEP9UCollator.exit, label %10

10:                                               ; preds = %7, %1
  br label %_ZN6icu_7717RuleBasedCollator16rbcFromUCollatorEP9UCollator.exit

_ZN6icu_7717RuleBasedCollator16rbcFromUCollatorEP9UCollator.exit: ; preds = %7, %10
  %11 = phi ptr [ %5, %7 ], [ null, %10 ]
  ret ptr %11
}